; Function Attrs: mustprogress uwtable
define void @_Z35ulocimp_toLegacyTypeWithFallback_77St17basic_string_viewIcSt11char_traitsIcEES2_(ptr dead_on_unwind noalias writable writeonly sret(%"class.std::optional.30") align 8 captures(none) %0, i64 %1, ptr %2, i64 %3, ptr %4) local_unnamed_addr #1 personality ptr @__gxx_personality_v0 {
  %6 = alloca %"class.std::optional.30", align 8
  call void @llvm.lifetime.start.p0(i64 24, ptr nonnull %6) #20
  call void @_Z23ulocimp_toLegacyType_77St17basic_string_viewIcSt11char_traitsIcEES2_(ptr dead_on_unwind nonnull writable sret(%"class.std::optional.30") align 8 %6, i64 %1, ptr %2, i64 %3, ptr %4)
  %7 = getelementptr inbounds nuw i8, ptr %6, i64 16
  %8 = load i8, ptr %7, align 8, !tbaa !141, !range !74, !noundef !75
  %9 = trunc nuw i8 %8 to i1
  br i1 %9, label %_ZN12_GLOBAL__N_122isWellFormedLegacyTypeESt17basic_string_viewIcSt11char_traitsIcEE.exit.thread, label %10

10:                                               ; preds = %5
  %11 = getelementptr inbounds nuw i8, ptr %4, i64 %3
  %.not33.i = icmp samesign eq i64 %3, 0
  br i1 %.not33.i, label %_ZN12_GLOBAL__N_122isWellFormedLegacyTypeESt17basic_string_viewIcSt11char_traitsIcEE.exit.thread, label %.lr.ph.i

.lr.ph.i:                                         ; preds = %10, %.lr.ph.i.backedge
  %.02335.i = phi i32 [ %.02335.i.be, %.lr.ph.i.backedge ], [ 0, %10 ]
  %.02734.i = phi ptr [ %.02734.i.be, %.lr.ph.i.backedge ], [ %4, %10 ]
  %12 = load i8, ptr %.02734.i, align 1, !tbaa !20
  switch i8 %12, label %13 [
    i8 95, label %18
    i8 47, label %18
    i8 45, label %18
  ]

13:                                               ; preds = %.lr.ph.i
  %14 = call signext i8 @uprv_isASCIILetter_77(i8 noundef signext %12)
  %.not.i.i = icmp ne i8 %14, 0
  %15 = add i8 %12, -48
  %16 = icmp ult i8 %15, 10
  %17 = or i1 %16, %.not.i.i
  br i1 %17, label %20, label %_ZN12_GLOBAL__N_122isWellFormedLegacyTypeESt17basic_string_viewIcSt11char_traitsIcEE.exit.thread

18:                                               ; preds = %.lr.ph.i, %.lr.ph.i, %.lr.ph.i
  %.not32.i = icmp eq i32 %.02335.i, 0
  %19 = getelementptr inbounds nuw i8, ptr %.02734.i, i64 1
  %.not.i13 = icmp eq ptr %19, %11
  %or.cond = select i1 %.not32.i, i1 true, i1 %.not.i13
  br i1 %or.cond, label %_ZN12_GLOBAL__N_122isWellFormedLegacyTypeESt17basic_string_viewIcSt11char_traitsIcEE.exit.thread, label %.lr.ph.i.backedge

.lr.ph.i.backedge:                                ; preds = %18, %20
  %.02335.i.be = phi i32 [ %21, %20 ], [ 0, %18 ]
  %.02734.i.be = phi ptr [ %22, %20 ], [ %19, %18 ]
  br label %.lr.ph.i

20:                                               ; preds = %13
  %21 = add nsw i32 %.02335.i, 1
  %22 = getelementptr inbounds nuw i8, ptr %.02734.i, i64 1
  %.not.i = icmp eq ptr %22, %11
  br i1 %.not.i, label %_ZN12_GLOBAL__N_122isWellFormedLegacyTypeESt17basic_string_viewIcSt11char_traitsIcEE.exit, label %.lr.ph.i.backedge

_ZN12_GLOBAL__N_122isWellFormedLegacyTypeESt17basic_string_viewIcSt11char_traitsIcEE.exit: ; preds = %20
  %.not = icmp eq i32 %21, 0
  br i1 %.not, label %_ZN12_GLOBAL__N_122isWellFormedLegacyTypeESt17basic_string_viewIcSt11char_traitsIcEE.exit.thread, label %23

23:                                               ; preds = %_ZN12_GLOBAL__N_122isWellFormedLegacyTypeESt17basic_string_viewIcSt11char_traitsIcEE.exit
  store i64 %3, ptr %0, align 8, !tbaa !143
  %.sroa.3.0..sroa_idx = getelementptr inbounds nuw i8, ptr %0, i64 8
  store ptr %4, ptr %.sroa.3.0..sroa_idx, align 8, !tbaa !56
  %24 = getelementptr inbounds nuw i8, ptr %0, i64 16
  store i8 1, ptr %24, align 8, !tbaa !141
  br label %25

_ZN12_GLOBAL__N_122isWellFormedLegacyTypeESt17basic_string_viewIcSt11char_traitsIcEE.exit.thread: ; preds = %13, %18, %10, %_ZN12_GLOBAL__N_122isWellFormedLegacyTypeESt17basic_string_viewIcSt11char_traitsIcEE.exit, %5
  call void @llvm.memcpy.p0.p0.i64(ptr noundef nonnull align 8 dereferenceable(24) %0, ptr noundef nonnull align 8 dereferenceable(24) %6, i64 24, i1 false)
  br label %25

25:                                               ; preds = %_ZN12_GLOBAL__N_122isWellFormedLegacyTypeESt17basic_string_viewIcSt11char_traitsIcEE.exit.thread, %23
  call void @llvm.lifetime.end.p0(i64 24, ptr nonnull %6) #20
  ret void
}